Certificate:
    Data:
        Version: 3 (0x2)
        Serial Number: 2 (0x2)
        Signature Algorithm: md5WithRSAEncryption
        Issuer: C=UK, ST=Oxfordshire, L=Chilton, O=NERC, OU=BADC, CN=Java WS-Security Client CA
        Validity
            Not Before: Sep 25 10:55:06 2008 GMT
            Not After : Sep 25 10:55:06 2009 GMT
        Subject: C=UK, ST=Oxfordshire, O=NERC, OU=BADC, CN=Python WS-Security Service
        Subject Public Key Info:
            Public Key Algorithm: rsaEncryption
            RSA Public Key: (2048 bit)
                Modulus (2048 bit):
                    00:e0:ef:ff:1a:e3:ed:cc:80:85:a1:53:5e:d2:5b:
                    ca:c6:9b:86:e2:7b:ba:e6:b3:3d:dc:87:5d:f2:bc:
                    22:14:5b:72:a8:d9:47:7f:06:19:d1:04:ef:09:cf:
                    8e:87:fd:4f:2d:dc:53:31:6d:b9:e6:84:ad:be:2e:
                    84:bf:be:10:a5:e4:f9:a2:5f:bd:b5:a6:29:66:1c:
                    a0:c3:a4:48:21:52:80:33:38:27:43:e8:8f:2d:61:
                    26:4c:b1:15:85:ee:81:ba:8e:fe:57:39:e6:d0:6d:
                    47:06:11:14:8f:98:97:d8:3d:4a:10:a1:cf:93:a5:
                    1a:77:ab:92:60:07:bb:64:0f:4d:d6:25:69:64:3c:
                    03:2d:44:ef:f1:5c:df:79:0b:d4:e8:d2:5f:32:e2:
                    48:ce:10:41:2a:57:e6:13:89:da:7a:29:e7:9b:f7:
                    fb:2d:70:63:01:62:09:31:16:f9:c9:05:f8:88:12:
                    c5:d3:5d:96:0e:14:82:0a:a3:c1:d9:bc:e2:a4:9d:
                    98:f9:ca:ea:19:0b:86:87:84:68:6f:73:54:e4:f2:
                    03:0b:cc:47:67:b4:d0:bc:24:e3:a6:ad:6e:d7:5d:
                    16:3d:05:e2:27:b4:c8:c7:1d:0b:b6:5d:62:a3:4f:
                    d3:29:49:da:ab:7b:27:7b:39:36:73:25:e7:aa:f6:
                    31:e5
                Exponent: 65537 (0x10001)
        X509v3 extensions:
            X509v3 Basic Constraints: 
                CA:FALSE
            Netscape Comment: 
                OpenSSL Generated Certificate
            X509v3 Subject Key Identifier: 
                05:AD:F0:F4:7F:3D:B9:FE:18:97:E2:E9:73:56:7F:8E:E0:E9:F4:FB
            X509v3 Authority Key Identifier: 
                keyid:C4:5F:0B:CF:B9:B3:C6:AD:95:26:83:70:2A:48:56:8D:F0:D4:CE:5E
                DirName:/C=UK/ST=Oxfordshire/L=Chilton/O=NERC/OU=BADC/CN=Java WS-Security Client CA
                serial:00

    Signature Algorithm: md5WithRSAEncryption
        56:de:f0:7e:d7:cb:a9:9d:57:13:83:7a:75:95:ec:ac:ad:9c:
        fb:12:37:25:ed:c8:bc:91:d6:ba:1d:59:1a:ed:da:2c:97:a3:
        49:b0:60:94:56:fd:0c:3a:8d:6d:f9:53:4d:73:a8:79:29:1f:
        dd:27:2c:dd:03:31:9b:e6:f7:87:3e:19:94:3e:32:05:d1:f0:
        fd:44:2d:62:ad:d6:dc:14:5c:c4:60:e7:c2:b0:8c:4c:8d:c3:
        58:d2:2c:0e:4a:e2:dd:f1:3d:7e:bb:e5:d6:ec:d5:ff:b4:3c:
        ed:b1:49:2e:90:f5:d8:87:0a:e9:9c:96:6e:4c:fc:1c:e7:66:
        aa:41
-----BEGIN CERTIFICATE-----
MIID2jCCA0OgAwIBAgIBAjANBgkqhkiG9w0BAQQFADB4MQswCQYDVQQGEwJVSzEU
MBIGA1UECBMLT3hmb3Jkc2hpcmUxEDAOBgNVBAcTB0NoaWx0b24xDTALBgNVBAoT
BE5FUkMxDTALBgNVBAsTBEJBREMxIzAhBgNVBAMTGkphdmEgV1MtU2VjdXJpdHkg
Q2xpZW50IENBMB4XDTA4MDkyNTEwNTUwNloXDTA5MDkyNTEwNTUwNlowZjELMAkG
A1UEBhMCVUsxFDASBgNVBAgTC094Zm9yZHNoaXJlMQ0wCwYDVQQKEwRORVJDMQ0w
CwYDVQQLEwRCQURDMSMwIQYDVQQDExpQeXRob24gV1MtU2VjdXJpdHkgU2Vydmlj
ZTCCASIwDQYJKoZIhvcNAQEBBQADggEPADCCAQoCggEBAODv/xrj7cyAhaFTXtJb
ysabhuJ7uuazPdyHXfK8IhRbcqjZR38GGdEE7wnPjof9Ty3cUzFtueaErb4uhL++
EKXk+aJfvbWmKWYcoMOkSCFSgDM4J0Pojy1hJkyxFYXugbqO/lc55tBtRwYRFI+Y
l9g9ShChz5OlGnerkmAHu2QPTdYlaWQ8Ay1E7/Fc33kL1OjSXzLiSM4QQSpX5hOJ
2nop55v3+y1wYwFiCTEW+ckF+IgSxdNdlg4Uggqjwdm84qSdmPnK6hkLhoeEaG9z
VOTyAwvMR2e00Lwk46atbtddFj0F4ie0yMcdC7ZdYqNP0ylJ2qt7J3s5NnMl56r2
MeUCAwEAAaOCAQAwgf0wCQYDVR0TBAIwADAsBglghkgBhvhCAQ0EHxYdT3BlblNT
TCBHZW5lcmF0ZWQgQ2VydGlmaWNhdGUwHQYDVR0OBBYEFAWt8PR/Pbn+GJfi6XNW
f47g6fT7MIGiBgNVHSMEgZowgZeAFMRfC8+5s8atlSaDcCpIVo3w1M5eoXykejB4
MQswCQYDVQQGEwJVSzEUMBIGA1UECBMLT3hmb3Jkc2hpcmUxEDAOBgNVBAcTB0No
aWx0b24xDTALBgNVBAoTBE5FUkMxDTALBgNVBAsTBEJBREMxIzAhBgNVBAMTGkph
dmEgV1MtU2VjdXJpdHkgQ2xpZW50IENBggEAMA0GCSqGSIb3DQEBBAUAA4GBAFbe
8H7Xy6mdVxODenWV7KytnPsSNyXtyLyR1rodWRrt2iyXo0mwYJRW/Qw6jW35U01z
qHkpH90nLN0DMZvm94c+GZQ+MgXR8P1ELWKt1twUXMRg58KwjEyNw1jSLA5K4t3x
PX675dbs1f+0PO2xSS6Q9diHCumclm5M/BznZqpB
-----END CERTIFICATE-----
