Certificate:
    Data:
        Version: 3 (0x2)
        Serial Number: 41 (0x29)
        Signature Algorithm: md5WithRSAEncryption
        Issuer: O=NDG, OU=Security, CN=Test CA
        Validity
            Not Before: Jul  6 11:37:57 2011 GMT
            Not After : Jul  5 11:37:57 2012 GMT
        Subject: O=NDG, OU=BADC, CN=test
        Subject Public Key Info:
            Public Key Algorithm: rsaEncryption
            RSA Public Key: (2048 bit)
                Modulus (2048 bit):
                    00:c0:e0:94:c2:e9:c0:df:96:36:ba:4d:0e:3f:bc:
                    41:51:7b:4f:fe:d8:82:47:52:f8:36:57:35:15:3b:
                    83:77:ba:84:aa:a3:48:f0:03:0b:5a:b7:31:40:8d:
                    3f:87:05:9e:06:c6:72:1f:ca:7d:ed:73:3c:d0:76:
                    4d:3b:32:89:e7:1f:5b:84:27:bf:8b:72:09:2a:d4:
                    40:8d:2c:c4:c3:23:68:6c:f4:62:55:a8:e0:2e:8a:
                    c8:b4:5f:bf:e1:18:d7:6a:a6:1a:90:6d:e6:83:17:
                    10:3a:95:b5:da:0d:44:3f:df:fb:6c:c5:9e:bf:1d:
                    04:5f:1c:16:ce:9e:f7:9d:81:f8:fe:ca:43:82:5f:
                    6b:c8:70:17:f8:e8:f3:74:d9:fb:ac:14:af:99:8f:
                    fd:f3:ad:e2:7e:8d:f3:bd:89:15:f0:39:ea:51:7c:
                    29:81:8c:bc:ba:63:6b:69:e0:c1:46:2f:27:93:83:
                    85:be:8b:bb:aa:b8:76:c3:ec:8a:f6:50:e1:c3:90:
                    9e:47:1d:19:68:40:62:59:13:8b:eb:e8:89:64:20:
                    ec:a3:b7:e7:b2:8f:98:f2:64:b4:aa:6e:d0:f1:73:
                    fc:ea:ed:19:19:67:98:11:f5:95:ca:76:0b:c7:43:
                    35:3c:53:23:b5:67:b0:b5:26:59:d1:c5:3e:4a:d1:
                    70:dd
                Exponent: 65537 (0x10001)
        X509v3 extensions:
            Netscape Cert Type: 
                SSL Client, SSL Server, S/MIME, Object Signing
    Signature Algorithm: md5WithRSAEncryption
        50:c2:83:3e:a4:53:49:94:50:cb:7e:f2:aa:03:0c:4b:70:94:
        02:a2:ea:99:e6:63:32:33:b9:bc:37:e9:1c:b2:05:35:5a:fd:
        67:37:bc:da:52:5e:90:57:69:cd:8a:e5:e3:dc:af:5e:d7:2e:
        8d:5a:72:6b:3f:fd:6e:12:d5:38:0c:14:58:b8:a8:79:38:df:
        e9:68:9a:d5:32:3b:18:4d:e7:89:12:a9:1a:fe:c3:15:01:32:
        bb:21:ff:8e:d0:47:b9:f3:1a:ed:02:57:4c:e2:92:6f:d1:cf:
        9d:4d:dc:34:7b:86:c1:a3:e6:40:ed:db:87:65:91:b7:13:c8:
        ca:29
-----BEGIN CERTIFICATE-----
MIICbjCCAdegAwIBAgIBKTANBgkqhkiG9w0BAQQFADAzMQwwCgYDVQQKEwNOREcx
ETAPBgNVBAsTCFNlY3VyaXR5MRAwDgYDVQQDEwdUZXN0IENBMB4XDTExMDcwNjEx
Mzc1N1oXDTEyMDcwNTExMzc1N1owLDEMMAoGA1UEChMDTkRHMQ0wCwYDVQQLEwRC
QURDMQ0wCwYDVQQDEwR0ZXN0MIIBIjANBgkqhkiG9w0BAQEFAAOCAQ8AMIIBCgKC
AQEAwOCUwunA35Y2uk0OP7xBUXtP/tiCR1L4Nlc1FTuDd7qEqqNI8AMLWrcxQI0/
hwWeBsZyH8p97XM80HZNOzKJ5x9bhCe/i3IJKtRAjSzEwyNobPRiVajgLorItF+/
4RjXaqYakG3mgxcQOpW12g1EP9/7bMWevx0EXxwWzp73nYH4/spDgl9ryHAX+Ojz
dNn7rBSvmY/9863ifo3zvYkV8DnqUXwpgYy8umNraeDBRi8nk4OFvou7qrh2w+yK
9lDhw5CeRx0ZaEBiWROL6+iJZCDso7fnso+Y8mS0qm7Q8XP86u0ZGWeYEfWVynYL
x0M1PFMjtWewtSZZ0cU+StFw3QIDAQABoxUwEzARBglghkgBhvhCAQEEBAMCBPAw
DQYJKoZIhvcNAQEEBQADgYEAUMKDPqRTSZRQy37yqgMMS3CUAqLqmeZjMjO5vDfp
HLIFNVr9Zze82lJekFdpzYrl49yvXtcujVpyaz/9bhLVOAwUWLioeTjf6Wia1TI7
GE3niRKpGv7DFQEyuyH/jtBHufMa7QJXTOKSb9HPnU3cNHuGwaPmQO3bh2WRtxPI
yik=
-----END CERTIFICATE-----
