Certificate:
    Data:
        Version: 3 (0x2)
        Serial Number: 23 (0x17)
        Signature Algorithm: md5WithRSAEncryption
        Issuer: O=NDG, OU=Security, CN=Test CA
        Validity
            Not Before: Jun 29 11:10:12 2010 GMT
            Not After : Jun 29 11:10:12 2011 GMT
        Subject: O=NDG, OU=WS-Security Unittest, CN=server
        Subject Public Key Info:
            Public Key Algorithm: rsaEncryption
            RSA Public Key: (2048 bit)
                Modulus (2048 bit):
                    00:ca:87:9c:86:8c:5e:a5:c5:ed:ce:2f:f8:35:95:
                    97:6a:6a:bd:67:8b:08:d1:53:dd:6d:d6:47:64:b5:
                    4f:60:e1:b4:01:c6:0e:21:16:c3:17:d2:76:fa:89:
                    62:94:5d:ed:3d:36:9b:ae:f0:a2:e2:69:08:7b:7f:
                    58:fe:88:c7:ef:17:29:25:64:56:b3:3b:7c:27:a4:
                    ee:0e:f7:98:ef:76:ca:ee:bb:b4:52:3f:53:2b:d6:
                    94:96:a9:3e:6b:13:e6:25:45:aa:be:ac:a9:1e:51:
                    6c:38:d5:dd:bf:44:2f:78:7e:94:3a:81:5c:8a:5d:
                    e3:df:49:6e:76:7e:54:1c:9a:b0:07:b9:11:bc:0f:
                    2c:50:19:25:a5:2c:3c:7a:52:e0:f3:09:f3:10:fc:
                    15:b9:68:45:6d:a5:72:0a:7f:27:ea:15:ba:5c:a6:
                    37:a6:c9:4f:39:47:a8:7b:2b:c4:3b:5a:6a:1a:f3:
                    8d:67:a7:e2:91:74:c4:a7:85:0e:95:5f:d3:dc:81:
                    f7:0d:74:d1:33:b1:5f:b3:c5:be:e4:6e:56:2a:25:
                    75:04:0c:55:a6:35:c2:66:76:85:8f:51:7c:0b:b6:
                    f7:40:df:0c:32:d7:99:3e:72:f2:d5:c3:75:f8:06:
                    6c:93:5e:ba:ca:ef:ab:8e:8d:ca:e8:78:f3:08:26:
                    91:eb
                Exponent: 65537 (0x10001)
        X509v3 extensions:
            Netscape Cert Type: 
                SSL Client, SSL Server, S/MIME, Object Signing
    Signature Algorithm: md5WithRSAEncryption
        67:96:45:5e:73:66:69:2c:f1:fb:ed:65:c9:fa:69:c7:6a:0e:
        15:d9:3b:56:1b:90:a5:27:18:f7:47:70:f0:1b:a6:41:21:d8:
        21:3e:1a:ae:87:9a:f1:36:3e:02:cf:1f:30:83:af:f8:fe:21:
        6c:14:45:a0:9e:39:f2:91:de:0a:06:22:8f:4d:2e:9f:66:7e:
        26:61:3d:cc:31:4d:43:9e:4d:5d:c6:00:ef:82:ed:30:57:76:
        c4:4f:db:85:7c:97:35:a1:d0:ff:b8:91:a1:9c:e9:a3:a8:c9:
        99:80:a4:03:66:8b:e6:44:54:d0:7c:72:d8:e0:c3:3b:ea:98:
        e7:f7
-----BEGIN CERTIFICATE-----
MIICgDCCAemgAwIBAgIBFzANBgkqhkiG9w0BAQQFADAzMQwwCgYDVQQKEwNOREcx
ETAPBgNVBAsTCFNlY3VyaXR5MRAwDgYDVQQDEwdUZXN0IENBMB4XDTEwMDYyOTEx
MTAxMloXDTExMDYyOTExMTAxMlowPjEMMAoGA1UEChMDTkRHMR0wGwYDVQQLExRX
Uy1TZWN1cml0eSBVbml0dGVzdDEPMA0GA1UEAxMGc2VydmVyMIIBIjANBgkqhkiG
9w0BAQEFAAOCAQ8AMIIBCgKCAQEAyoechoxepcXtzi/4NZWXamq9Z4sI0VPdbdZH
ZLVPYOG0AcYOIRbDF9J2+olilF3tPTabrvCi4mkIe39Y/ojH7xcpJWRWszt8J6Tu
DveY73bK7ru0Uj9TK9aUlqk+axPmJUWqvqypHlFsONXdv0QveH6UOoFcil3j30lu
dn5UHJqwB7kRvA8sUBklpSw8elLg8wnzEPwVuWhFbaVyCn8n6hW6XKY3pslPOUeo
eyvEO1pqGvONZ6fikXTEp4UOlV/T3IH3DXTRM7Ffs8W+5G5WKiV1BAxVpjXCZnaF
j1F8C7b3QN8MMteZPnLy1cN1+AZsk166yu+rjo3K6HjzCCaR6wIDAQABoxUwEzAR
BglghkgBhvhCAQEEBAMCBPAwDQYJKoZIhvcNAQEEBQADgYEAZ5ZFXnNmaSzx++1l
yfppx2oOFdk7VhuQpScY90dw8BumQSHYIT4aroea8TY+As8fMIOv+P4hbBRFoJ45
8pHeCgYij00un2Z+JmE9zDFNQ55NXcYA74LtMFd2xE/bhXyXNaHQ/7iRoZzpo6jJ
mYCkA2aL5kRU0Hxy2ODDO+qY5/c=
-----END CERTIFICATE-----
