Certificate:
    Data:
        Version: 3 (0x2)
        Serial Number: 260 (0x104)
        Signature Algorithm: md5WithRSAEncryption
        Issuer: O=NDG, OU=BADC, CN=Test CA
        Validity
            Not Before: Dec 16 15:20:55 2008 GMT
            Not After : Dec 15 15:20:55 2013 GMT
        Subject: O=NDG Security Test, OU=WS-Security Unittest, CN=server
        Subject Public Key Info:
            Public Key Algorithm: rsaEncryption
            RSA Public Key: (2048 bit)
                Modulus (2048 bit):
                    00:ca:87:9c:86:8c:5e:a5:c5:ed:ce:2f:f8:35:95:
                    97:6a:6a:bd:67:8b:08:d1:53:dd:6d:d6:47:64:b5:
                    4f:60:e1:b4:01:c6:0e:21:16:c3:17:d2:76:fa:89:
                    62:94:5d:ed:3d:36:9b:ae:f0:a2:e2:69:08:7b:7f:
                    58:fe:88:c7:ef:17:29:25:64:56:b3:3b:7c:27:a4:
                    ee:0e:f7:98:ef:76:ca:ee:bb:b4:52:3f:53:2b:d6:
                    94:96:a9:3e:6b:13:e6:25:45:aa:be:ac:a9:1e:51:
                    6c:38:d5:dd:bf:44:2f:78:7e:94:3a:81:5c:8a:5d:
                    e3:df:49:6e:76:7e:54:1c:9a:b0:07:b9:11:bc:0f:
                    2c:50:19:25:a5:2c:3c:7a:52:e0:f3:09:f3:10:fc:
                    15:b9:68:45:6d:a5:72:0a:7f:27:ea:15:ba:5c:a6:
                    37:a6:c9:4f:39:47:a8:7b:2b:c4:3b:5a:6a:1a:f3:
                    8d:67:a7:e2:91:74:c4:a7:85:0e:95:5f:d3:dc:81:
                    f7:0d:74:d1:33:b1:5f:b3:c5:be:e4:6e:56:2a:25:
                    75:04:0c:55:a6:35:c2:66:76:85:8f:51:7c:0b:b6:
                    f7:40:df:0c:32:d7:99:3e:72:f2:d5:c3:75:f8:06:
                    6c:93:5e:ba:ca:ef:ab:8e:8d:ca:e8:78:f3:08:26:
                    91:eb
                Exponent: 65537 (0x10001)
        X509v3 extensions:
            Netscape Cert Type: 
                SSL Client, SSL Server, S/MIME, Object Signing
    Signature Algorithm: md5WithRSAEncryption
        95:eb:24:bb:4e:4d:38:b8:0e:8d:0e:fa:27:61:0b:91:f7:9e:
        a3:a7:a4:e0:d8:ba:57:3a:ee:df:54:50:80:26:19:f5:66:d7:
        6c:83:64:eb:b3:1a:3b:dc:7a:08:49:db:3f:a1:9a:bf:03:08:
        7f:b2:8c:28:eb:cf:79:d9:a3:f0:a4:7c:65:40:c5:fe:34:88:
        7f:88:47:e2:4b:38:f4:d6:c6:91:69:9c:68:ca:ed:03:fc:fb:
        83:c8:07:be:3c:33:be:24:87:aa:68:7f:38:18:e3:fc:97:ef:
        8f:e4:6e:39:f8:3d:e2:97:91:4a:86:e8:39:52:01:b3:31:54:
        d9:5d
-----BEGIN CERTIFICATE-----
MIICizCCAfSgAwIBAgICAQQwDQYJKoZIhvcNAQEEBQAwLzEMMAoGA1UEChMDTkRH
MQ0wCwYDVQQLEwRCQURDMRAwDgYDVQQDEwdUZXN0IENBMB4XDTA4MTIxNjE1MjA1
NVoXDTEzMTIxNTE1MjA1NVowTDEaMBgGA1UEChMRTkRHIFNlY3VyaXR5IFRlc3Qx
HTAbBgNVBAsTFFdTLVNlY3VyaXR5IFVuaXR0ZXN0MQ8wDQYDVQQDEwZzZXJ2ZXIw
ggEiMA0GCSqGSIb3DQEBAQUAA4IBDwAwggEKAoIBAQDKh5yGjF6lxe3OL/g1lZdq
ar1niwjRU91t1kdktU9g4bQBxg4hFsMX0nb6iWKUXe09Npuu8KLiaQh7f1j+iMfv
FyklZFazO3wnpO4O95jvdsruu7RSP1Mr1pSWqT5rE+YlRaq+rKkeUWw41d2/RC94
fpQ6gVyKXePfSW52flQcmrAHuRG8DyxQGSWlLDx6UuDzCfMQ/BW5aEVtpXIKfyfq
FbpcpjemyU85R6h7K8Q7Wmoa841np+KRdMSnhQ6VX9PcgfcNdNEzsV+zxb7kblYq
JXUEDFWmNcJmdoWPUXwLtvdA3wwy15k+cvLVw3X4BmyTXrrK76uOjcroePMIJpHr
AgMBAAGjFTATMBEGCWCGSAGG+EIBAQQEAwIE8DANBgkqhkiG9w0BAQQFAAOBgQCV
6yS7Tk04uA6NDvonYQuR956jp6Tg2LpXOu7fVFCAJhn1Ztdsg2Trsxo73HoISds/
oZq/Awh/sowo68952aPwpHxlQMX+NIh/iEfiSzj01saRaZxoyu0D/PuDyAe+PDO+
JIeqaH84GOP8l++P5G45+D3il5FKhug5UgGzMVTZXQ==
-----END CERTIFICATE-----
